target datalayout = "e-m:e-p270:32:32-p271:32:32-p272:64:64-i64:64-i128:128-f80:128-n8:16:32:64-S128"
target triple = "x86_64-pc-linux-gnu"

%struct._zval_struct = type { %union._zend_value, %union.anon.3, %union.anon.6 }
%union._zend_value = type { i64 }
%union.anon.3 = type { i32 }
%union.anon.6 = type { i32 }
%struct._zend_refcounted_h = type { i32, %union.anon }
%union.anon = type { i32 }
%struct._zend_execute_data = type { ptr, ptr, ptr, ptr, %struct._zval_struct, ptr, ptr, ptr, ptr }
%struct._zend_string = type { %struct._zend_refcounted_h, i64, i64, [1 x i8] }

; Function Attrs: nounwind uwtable
define hidden void @zif_clearstatcache(ptr noundef %0, ptr noundef %1) #0 {
  %3 = alloca ptr, align 8
  %4 = alloca ptr, align 8
  %5 = alloca i1, align 1
  %6 = alloca ptr, align 8
  %7 = alloca ptr, align 8
  %8 = alloca i8, align 1
  %9 = alloca i32, align 4
  %10 = alloca i8, align 1
  %11 = alloca ptr, align 8
  %12 = alloca ptr, align 8
  %13 = alloca ptr, align 8
  %14 = alloca i1, align 1
  %15 = alloca ptr, align 8
  %16 = alloca ptr, align 8
  %17 = alloca ptr, align 8
  %18 = alloca i8, align 1
  %19 = alloca i32, align 4
  %20 = alloca i8, align 1
  %21 = alloca ptr, align 8
  %22 = alloca ptr, align 8
  %23 = alloca i8, align 1
  %24 = alloca i32, align 4
  %25 = alloca ptr, align 8
  %26 = alloca i64, align 8
  %27 = alloca i1, align 1
  %28 = alloca ptr, align 8
  %29 = alloca ptr, align 8
  %30 = alloca i8, align 1
  %31 = alloca i32, align 4
  %32 = alloca ptr, align 8
  %33 = alloca ptr, align 8
  %34 = alloca ptr, align 8
  %35 = alloca i8, align 1
  %36 = alloca i32, align 4
  %37 = alloca i1, align 1
  %38 = alloca ptr, align 8
  %39 = alloca ptr, align 8
  %40 = alloca ptr, align 8
  %41 = alloca i8, align 1
  %42 = alloca i32, align 4
  %43 = alloca ptr, align 8
  %44 = alloca ptr, align 8
  %45 = alloca ptr, align 8
  %46 = alloca i8, align 1
  %47 = alloca ptr, align 8
  %48 = alloca i64, align 8
  %49 = alloca i32, align 4
  %50 = alloca i32, align 4
  %51 = alloca i32, align 4
  %52 = alloca i32, align 4
  %53 = alloca i32, align 4
  %54 = alloca ptr, align 8
  %55 = alloca ptr, align 8
  %56 = alloca i32, align 4
  %57 = alloca ptr, align 8
  %58 = alloca i8, align 1
  %59 = alloca i8, align 1
  %60 = alloca i32, align 4
  store ptr %0, ptr %44, align 8
  store ptr %1, ptr %45, align 8
  store i8 0, ptr %46, align 1
  store ptr null, ptr %47, align 8
  store i64 0, ptr %48, align 8
  br label %61

61:                                               ; preds = %2
  store i32 0, ptr %49, align 4
  store i32 0, ptr %50, align 4
  store i32 2, ptr %51, align 4
  %62 = load ptr, ptr %44, align 8
  %63 = getelementptr inbounds %struct._zend_execute_data, ptr %62, i32 0, i32 4
  %64 = getelementptr inbounds %struct._zval_struct, ptr %63, i32 0, i32 2
  %65 = load i32, ptr %64, align 4
  store i32 %65, ptr %52, align 4
  store i32 0, ptr %53, align 4
  store ptr null, ptr %55, align 8
  store i32 0, ptr %56, align 4
  store ptr null, ptr %57, align 8
  store i8 0, ptr %58, align 1
  store i8 0, ptr %59, align 1
  store i32 0, ptr %60, align 4
  br label %66

66:                                               ; preds = %61
  %67 = load i32, ptr %52, align 4
  %68 = load i32, ptr %50, align 4
  %69 = icmp ult i32 %67, %68
  %70 = xor i1 %69, true
  %71 = xor i1 %70, true
  %72 = zext i1 %71 to i32
  %73 = sext i32 %72 to i64
  %74 = icmp ne i64 %73, 0
  br i1 %74, label %84, label %75

75:                                               ; preds = %66
  %76 = load i32, ptr %52, align 4
  %77 = load i32, ptr %51, align 4
  %78 = icmp ugt i32 %76, %77
  %79 = xor i1 %78, true
  %80 = xor i1 %79, true
  %81 = zext i1 %80 to i32
  %82 = sext i32 %81 to i64
  %83 = icmp ne i64 %82, 0
  br i1 %83, label %84, label %87

84:                                               ; preds = %75, %66
  %85 = load i32, ptr %50, align 4
  %86 = load i32, ptr %51, align 4
  call void @zend_wrong_parameters_count_error(i32 noundef %85, i32 noundef %86)
  store i32 1, ptr %60, align 4
  br label %352

87:                                               ; preds = %75
  %88 = load ptr, ptr %44, align 8
  %89 = getelementptr inbounds %struct._zval_struct, ptr %88, i64 4
  store ptr %89, ptr %54, align 8
  store i8 1, ptr %59, align 1
  %90 = load i32, ptr %53, align 4
  %91 = add i32 %90, 1
  store i32 %91, ptr %53, align 4
  %92 = load i32, ptr %53, align 4
  %93 = load i32, ptr %50, align 4
  %94 = icmp ule i32 %92, %93
  br i1 %94, label %100, label %95

95:                                               ; preds = %87
  %96 = load i8, ptr %59, align 1
  %97 = trunc i8 %96 to i1
  %98 = zext i1 %97 to i32
  %99 = icmp eq i32 %98, 1
  br label %100

100:                                              ; preds = %95, %87
  %101 = phi i1 [ true, %87 ], [ %99, %95 ]
  call void @llvm.assume(i1 %101)
  %102 = load i32, ptr %53, align 4
  %103 = load i32, ptr %50, align 4
  %104 = icmp ugt i32 %102, %103
  br i1 %104, label %110, label %105

105:                                              ; preds = %100
  %106 = load i8, ptr %59, align 1
  %107 = trunc i8 %106 to i1
  %108 = zext i1 %107 to i32
  %109 = icmp eq i32 %108, 0
  br label %110

110:                                              ; preds = %105, %100
  %111 = phi i1 [ true, %100 ], [ %109, %105 ]
  call void @llvm.assume(i1 %111)
  %112 = load i8, ptr %59, align 1
  %113 = trunc i8 %112 to i1
  br i1 %113, label %114, label %125

114:                                              ; preds = %110
  %115 = load i32, ptr %53, align 4
  %116 = load i32, ptr %52, align 4
  %117 = icmp ugt i32 %115, %116
  %118 = xor i1 %117, true
  %119 = xor i1 %118, true
  %120 = zext i1 %119 to i32
  %121 = sext i32 %120 to i64
  %122 = icmp ne i64 %121, 0
  br i1 %122, label %123, label %124

123:                                              ; preds = %114
  br label %352

124:                                              ; preds = %114
  br label %125

125:                                              ; preds = %124, %110
  %126 = load ptr, ptr %54, align 8
  %127 = getelementptr inbounds %struct._zval_struct, ptr %126, i32 1
  store ptr %127, ptr %54, align 8
  %128 = load ptr, ptr %54, align 8
  store ptr %128, ptr %55, align 8
  %129 = load ptr, ptr %55, align 8
  %130 = load i32, ptr %53, align 4
  store ptr %129, ptr %32, align 8
  store ptr %46, ptr %33, align 8
  store ptr %58, ptr %34, align 8
  store i8 0, ptr %35, align 1
  store i32 %130, ptr %36, align 4
  %131 = load ptr, ptr %32, align 8
  %132 = load ptr, ptr %33, align 8
  %133 = load ptr, ptr %34, align 8
  %134 = load i8, ptr %35, align 1
  %135 = trunc i8 %134 to i1
  %136 = load i32, ptr %36, align 4
  store ptr %131, ptr %15, align 8
  store ptr %132, ptr %16, align 8
  store ptr %133, ptr %17, align 8
  %137 = zext i1 %135 to i8
  store i8 %137, ptr %18, align 1
  store i32 %136, ptr %19, align 4
  store i8 0, ptr %20, align 1
  %138 = load i8, ptr %18, align 1
  %139 = trunc i8 %138 to i1
  br i1 %139, label %140, label %142

140:                                              ; preds = %125
  %141 = load ptr, ptr %17, align 8
  store i8 0, ptr %141, align 1
  br label %142

142:                                              ; preds = %140, %125
  %143 = load ptr, ptr %15, align 8
  store ptr %143, ptr %11, align 8
  %144 = load ptr, ptr %11, align 8
  %145 = getelementptr inbounds %struct._zval_struct, ptr %144, i32 0, i32 1
  %146 = load i8, ptr %145, align 8
  %147 = zext i8 %146 to i32
  %148 = icmp eq i32 %147, 3
  br i1 %148, label %149, label %151

149:                                              ; preds = %142
  %150 = load ptr, ptr %16, align 8
  store i8 1, ptr %150, align 1
  br label %187

151:                                              ; preds = %142
  %152 = load ptr, ptr %15, align 8
  store ptr %152, ptr %12, align 8
  %153 = load ptr, ptr %12, align 8
  %154 = getelementptr inbounds %struct._zval_struct, ptr %153, i32 0, i32 1
  %155 = load i8, ptr %154, align 8
  %156 = zext i8 %155 to i32
  %157 = icmp eq i32 %156, 2
  br i1 %157, label %158, label %160

158:                                              ; preds = %151
  %159 = load ptr, ptr %16, align 8
  store i8 0, ptr %159, align 1
  br label %186

160:                                              ; preds = %151
  %161 = load i8, ptr %18, align 1
  %162 = trunc i8 %161 to i1
  br i1 %162, label %163, label %173

163:                                              ; preds = %160
  %164 = load ptr, ptr %15, align 8
  store ptr %164, ptr %13, align 8
  %165 = load ptr, ptr %13, align 8
  %166 = getelementptr inbounds %struct._zval_struct, ptr %165, i32 0, i32 1
  %167 = load i8, ptr %166, align 8
  %168 = zext i8 %167 to i32
  %169 = icmp eq i32 %168, 1
  br i1 %169, label %170, label %173

170:                                              ; preds = %163
  %171 = load ptr, ptr %17, align 8
  store i8 1, ptr %171, align 1
  %172 = load ptr, ptr %16, align 8
  store i8 0, ptr %172, align 1
  br label %186

173:                                              ; preds = %163, %160
  %174 = load i8, ptr %20, align 1
  %175 = trunc i8 %174 to i1
  br i1 %175, label %176, label %181

176:                                              ; preds = %173
  %177 = load ptr, ptr %15, align 8
  %178 = load ptr, ptr %16, align 8
  %179 = load i32, ptr %19, align 4
  %180 = call zeroext i1 @zend_flf_parse_arg_bool_slow(ptr noundef %177, ptr noundef %178, i32 noundef %179) #10
  store i1 %180, ptr %14, align 1
  br label %188

181:                                              ; preds = %173
  %182 = load ptr, ptr %15, align 8
  %183 = load ptr, ptr %16, align 8
  %184 = load i32, ptr %19, align 4
  %185 = call zeroext i1 @zend_parse_arg_bool_slow(ptr noundef %182, ptr noundef %183, i32 noundef %184) #10
  store i1 %185, ptr %14, align 1
  br label %188

186:                                              ; preds = %170, %158
  br label %187

187:                                              ; preds = %186, %149
  store i1 true, ptr %14, align 1
  br label %188

188:                                              ; preds = %187, %181, %176
  %189 = load i1, ptr %14, align 1
  %190 = xor i1 %189, true
  %191 = xor i1 %190, true
  %192 = xor i1 %191, true
  %193 = zext i1 %192 to i32
  %194 = sext i32 %193 to i64
  %195 = icmp ne i64 %194, 0
  br i1 %195, label %196, label %197

196:                                              ; preds = %188
  store i32 2, ptr %56, align 4
  store i32 9, ptr %60, align 4
  br label %352

197:                                              ; preds = %188
  %198 = load i32, ptr %53, align 4
  %199 = add i32 %198, 1
  store i32 %199, ptr %53, align 4
  %200 = load i32, ptr %53, align 4
  %201 = load i32, ptr %50, align 4
  %202 = icmp ule i32 %200, %201
  br i1 %202, label %208, label %203

203:                                              ; preds = %197
  %204 = load i8, ptr %59, align 1
  %205 = trunc i8 %204 to i1
  %206 = zext i1 %205 to i32
  %207 = icmp eq i32 %206, 1
  br label %208

208:                                              ; preds = %203, %197
  %209 = phi i1 [ true, %197 ], [ %207, %203 ]
  call void @llvm.assume(i1 %209)
  %210 = load i32, ptr %53, align 4
  %211 = load i32, ptr %50, align 4
  %212 = icmp ugt i32 %210, %211
  br i1 %212, label %218, label %213

213:                                              ; preds = %208
  %214 = load i8, ptr %59, align 1
  %215 = trunc i8 %214 to i1
  %216 = zext i1 %215 to i32
  %217 = icmp eq i32 %216, 0
  br label %218

218:                                              ; preds = %213, %208
  %219 = phi i1 [ true, %208 ], [ %217, %213 ]
  call void @llvm.assume(i1 %219)
  %220 = load i8, ptr %59, align 1
  %221 = trunc i8 %220 to i1
  br i1 %221, label %222, label %233

222:                                              ; preds = %218
  %223 = load i32, ptr %53, align 4
  %224 = load i32, ptr %52, align 4
  %225 = icmp ugt i32 %223, %224
  %226 = xor i1 %225, true
  %227 = xor i1 %226, true
  %228 = zext i1 %227 to i32
  %229 = sext i32 %228 to i64
  %230 = icmp ne i64 %229, 0
  br i1 %230, label %231, label %232

231:                                              ; preds = %222
  br label %352

232:                                              ; preds = %222
  br label %233

233:                                              ; preds = %232, %218
  %234 = load ptr, ptr %54, align 8
  %235 = getelementptr inbounds %struct._zval_struct, ptr %234, i32 1
  store ptr %235, ptr %54, align 8
  %236 = load ptr, ptr %54, align 8
  store ptr %236, ptr %55, align 8
  %237 = load ptr, ptr %55, align 8
  %238 = load i32, ptr %53, align 4
  store ptr %237, ptr %38, align 8
  store ptr %47, ptr %39, align 8
  store ptr %48, ptr %40, align 8
  store i8 0, ptr %41, align 1
  store i32 %238, ptr %42, align 4
  %239 = load ptr, ptr %38, align 8
  %240 = load i8, ptr %41, align 1
  %241 = trunc i8 %240 to i1
  %242 = load i32, ptr %42, align 4
  store ptr %239, ptr %28, align 8
  store ptr %43, ptr %29, align 8
  %243 = zext i1 %241 to i8
  store i8 %243, ptr %30, align 1
  store i32 %242, ptr %31, align 4
  %244 = load ptr, ptr %28, align 8
  %245 = load ptr, ptr %29, align 8
  %246 = load i8, ptr %30, align 1
  %247 = trunc i8 %246 to i1
  %248 = load i32, ptr %31, align 4
  store ptr %244, ptr %21, align 8
  store ptr %245, ptr %22, align 8
  %249 = zext i1 %247 to i8
  store i8 %249, ptr %23, align 1
  store i32 %248, ptr %24, align 4
  %250 = load ptr, ptr %21, align 8
  %251 = load ptr, ptr %22, align 8
  %252 = load i8, ptr %23, align 1
  %253 = trunc i8 %252 to i1
  %254 = load i32, ptr %24, align 4
  store ptr %250, ptr %6, align 8
  store ptr %251, ptr %7, align 8
  %255 = zext i1 %253 to i8
  store i8 %255, ptr %8, align 1
  store i32 %254, ptr %9, align 4
  store i8 0, ptr %10, align 1
  %256 = load ptr, ptr %6, align 8
  store ptr %256, ptr %3, align 8
  %257 = load ptr, ptr %3, align 8
  %258 = getelementptr inbounds %struct._zval_struct, ptr %257, i32 0, i32 1
  %259 = load i8, ptr %258, align 8
  %260 = zext i8 %259 to i32
  %261 = icmp eq i32 %260, 6
  br i1 %261, label %262, label %266

262:                                              ; preds = %233
  %263 = load ptr, ptr %6, align 8
  %264 = load ptr, ptr %263, align 8
  %265 = load ptr, ptr %7, align 8
  store ptr %264, ptr %265, align 8
  br label %291

266:                                              ; preds = %233
  %267 = load i8, ptr %8, align 1
  %268 = trunc i8 %267 to i1
  br i1 %268, label %269, label %278

269:                                              ; preds = %266
  %270 = load ptr, ptr %6, align 8
  store ptr %270, ptr %4, align 8
  %271 = load ptr, ptr %4, align 8
  %272 = getelementptr inbounds %struct._zval_struct, ptr %271, i32 0, i32 1
  %273 = load i8, ptr %272, align 8
  %274 = zext i8 %273 to i32
  %275 = icmp eq i32 %274, 1
  br i1 %275, label %276, label %278

276:                                              ; preds = %269
  %277 = load ptr, ptr %7, align 8
  store ptr null, ptr %277, align 8
  br label %291

278:                                              ; preds = %269, %266
  %279 = load i8, ptr %10, align 1
  %280 = trunc i8 %279 to i1
  br i1 %280, label %281, label %286

281:                                              ; preds = %278
  %282 = load ptr, ptr %6, align 8
  %283 = load ptr, ptr %7, align 8
  %284 = load i32, ptr %9, align 4
  %285 = call zeroext i1 @zend_flf_parse_arg_str_slow(ptr noundef %282, ptr noundef %283, i32 noundef %284) #10
  store i1 %285, ptr %5, align 1
  br label %292

286:                                              ; preds = %278
  %287 = load ptr, ptr %6, align 8
  %288 = load ptr, ptr %7, align 8
  %289 = load i32, ptr %9, align 4
  %290 = call zeroext i1 @zend_parse_arg_str_slow(ptr noundef %287, ptr noundef %288, i32 noundef %289) #10
  store i1 %290, ptr %5, align 1
  br label %292

291:                                              ; preds = %276, %262
  store i1 true, ptr %5, align 1
  br label %292

292:                                              ; preds = %291, %286, %281
  %293 = load i1, ptr %5, align 1
  br i1 %293, label %294, label %310

294:                                              ; preds = %292
  %295 = load ptr, ptr %29, align 8
  %296 = load ptr, ptr %295, align 8
  %297 = icmp ne ptr %296, null
  br i1 %297, label %298, label %311

298:                                              ; preds = %294
  %299 = load ptr, ptr %29, align 8
  %300 = load ptr, ptr %299, align 8
  %301 = getelementptr inbounds %struct._zend_string, ptr %300, i32 0, i32 3
  %302 = load ptr, ptr %29, align 8
  %303 = load ptr, ptr %302, align 8
  %304 = getelementptr inbounds %struct._zend_string, ptr %303, i32 0, i32 2
  %305 = load i64, ptr %304, align 8
  store ptr %301, ptr %25, align 8
  store i64 %305, ptr %26, align 8
  %306 = load i64, ptr %26, align 8
  %307 = load ptr, ptr %25, align 8
  %308 = call i64 @strlen(ptr noundef %307) #11
  %309 = icmp ne i64 %306, %308
  br i1 %309, label %310, label %311

310:                                              ; preds = %298, %292
  store i1 false, ptr %27, align 1
  br label %312

311:                                              ; preds = %298, %294
  store i1 true, ptr %27, align 1
  br label %312

312:                                              ; preds = %311, %310
  %313 = load i1, ptr %27, align 1
  br i1 %313, label %315, label %314

314:                                              ; preds = %312
  store i1 false, ptr %37, align 1
  br label %334

315:                                              ; preds = %312
  %316 = load i8, ptr %41, align 1
  %317 = trunc i8 %316 to i1
  br i1 %317, label %318, label %325

318:                                              ; preds = %315
  %319 = load ptr, ptr %43, align 8
  %320 = icmp ne ptr %319, null
  %321 = xor i1 %320, true
  br i1 %321, label %322, label %325

322:                                              ; preds = %318
  %323 = load ptr, ptr %39, align 8
  store ptr null, ptr %323, align 8
  %324 = load ptr, ptr %40, align 8
  store i64 0, ptr %324, align 8
  br label %333

325:                                              ; preds = %318, %315
  %326 = load ptr, ptr %43, align 8
  %327 = getelementptr inbounds %struct._zend_string, ptr %326, i32 0, i32 3
  %328 = load ptr, ptr %39, align 8
  store ptr %327, ptr %328, align 8
  %329 = load ptr, ptr %43, align 8
  %330 = getelementptr inbounds %struct._zend_string, ptr %329, i32 0, i32 2
  %331 = load i64, ptr %330, align 8
  %332 = load ptr, ptr %40, align 8
  store i64 %331, ptr %332, align 8
  br label %333

333:                                              ; preds = %325, %322
  store i1 true, ptr %37, align 1
  br label %334

334:                                              ; preds = %333, %314
  %335 = load i1, ptr %37, align 1
  %336 = xor i1 %335, true
  %337 = xor i1 %336, true
  %338 = xor i1 %337, true
  %339 = zext i1 %338 to i32
  %340 = sext i32 %339 to i64
  %341 = icmp ne i64 %340, 0
  br i1 %341, label %342, label %343

342:                                              ; preds = %334
  store i32 16, ptr %56, align 4
  store i32 9, ptr %60, align 4
  br label %352

343:                                              ; preds = %334
  %344 = load i32, ptr %53, align 4
  %345 = load i32, ptr %51, align 4
  %346 = icmp eq i32 %344, %345
  br i1 %346, label %350, label %347

347:                                              ; preds = %343
  %348 = load i32, ptr %51, align 4
  %349 = icmp eq i32 %348, -1
  br label %350

350:                                              ; preds = %347, %343
  %351 = phi i1 [ true, %343 ], [ %349, %347 ]
  call void @llvm.assume(i1 %351)
  br label %352

352:                                              ; preds = %350, %342, %231, %196, %123, %84
  %353 = load i32, ptr %60, align 4
  %354 = icmp ne i32 %353, 0
  %355 = xor i1 %354, true
  %356 = xor i1 %355, true
  %357 = zext i1 %356 to i32
  %358 = sext i32 %357 to i64
  %359 = icmp ne i64 %358, 0
  br i1 %359, label %360, label %366

360:                                              ; preds = %352
  %361 = load i32, ptr %60, align 4
  %362 = load i32, ptr %53, align 4
  %363 = load ptr, ptr %57, align 8
  %364 = load i32, ptr %56, align 4
  %365 = load ptr, ptr %55, align 8
  call void @zend_wrong_parameter_error(i32 noundef %361, i32 noundef %362, ptr noundef %363, i32 noundef %364, ptr noundef %365)
  br label %372

366:                                              ; preds = %352
  br label %367

367:                                              ; preds = %366
  %368 = load i8, ptr %46, align 1
  %369 = trunc i8 %368 to i1
  %370 = load ptr, ptr %47, align 8
  %371 = load i64, ptr %48, align 8
  call void @php_clear_stat_cache(i1 noundef zeroext %369, ptr noundef %370, i64 noundef %371)
  br label %372

372:                                              ; preds = %367, %360
  ret void
}