; Function Attrs: nounwind uwtable
define hidden void @zif_clearstatcache(ptr noundef %0, ptr nocapture noundef readnone %1) local_unnamed_addr #1 {
  %3 = alloca ptr, align 8
  %4 = alloca i8, align 1
  store i8 0, ptr %4, align 1
  %5 = getelementptr inbounds i8, ptr %0, i64 44
  %6 = load i32, ptr %5, align 4
  %7 = icmp ugt i32 %6, 2
  br i1 %7, label %8, label %9

8:                                                ; preds = %2
  tail call void @zend_wrong_parameters_count_error(i32 noundef 0, i32 noundef 2) #16
  br label %.thread144

9:                                                ; preds = %2
  %10 = icmp eq i32 %6, 0
  br i1 %10, label %37, label %11

11:                                               ; preds = %9
  %12 = getelementptr inbounds i8, ptr %0, i64 88
  %13 = load i8, ptr %12, align 8
  switch i8 %13, label %15 [
    i8 3, label %.critedge
    i8 2, label %14
  ]

14:                                               ; preds = %11
  br label %.critedge

15:                                               ; preds = %11
  %16 = getelementptr inbounds i8, ptr %0, i64 80
  %17 = call zeroext i1 @zend_parse_arg_bool_slow(ptr noundef nonnull %16, ptr noundef nonnull %4, i32 noundef 1) #16
  br i1 %17, label %18, label %.thread144

.critedge:                                        ; preds = %11, %14
  %storemerge = phi i8 [ 0, %14 ], [ 1, %11 ]
  store i8 %storemerge, ptr %4, align 1
  br label %18

18:                                               ; preds = %15, %.critedge
  %.not = icmp eq i32 %6, 2
  br i1 %.not, label %19, label %37

19:                                               ; preds = %18
  %20 = getelementptr inbounds i8, ptr %0, i64 96
  %21 = getelementptr inbounds i8, ptr %0, i64 104
  %22 = load i8, ptr %21, align 8
  %23 = icmp eq i8 %22, 6
  br i1 %23, label %.critedge128, label %25

.critedge128:                                     ; preds = %19
  %24 = load ptr, ptr %20, align 8
  store ptr %24, ptr %3, align 8
  br label %27

25:                                               ; preds = %19
  %26 = call zeroext i1 @zend_parse_arg_str_slow(ptr noundef nonnull %20, ptr noundef nonnull %3, i32 noundef 2) #16
  br i1 %26, label %thread-pre-split, label %.thread144

thread-pre-split:                                 ; preds = %25
  %.pr = load ptr, ptr %3, align 8
  br label %27

27:                                               ; preds = %thread-pre-split, %.critedge128
  %28 = phi ptr [ %.pr, %thread-pre-split ], [ %24, %.critedge128 ]
  %.not124 = icmp eq ptr %28, null
  br i1 %.not124, label %._crit_edge, label %29

._crit_edge:                                      ; preds = %27
  %.pre = load i64, ptr inttoptr (i64 16 to ptr), align 16
  br label %34

29:                                               ; preds = %27
  %30 = getelementptr inbounds i8, ptr %28, i64 24
  %31 = getelementptr inbounds i8, ptr %28, i64 16
  %32 = load i64, ptr %31, align 8
  %33 = call i64 @strlen(ptr noundef nonnull dereferenceable(1) %30) #17
  %.not125 = icmp eq i64 %32, %33
  br i1 %.not125, label %34, label %.thread144

34:                                               ; preds = %._crit_edge, %29
  %35 = phi i64 [ %.pre, %._crit_edge ], [ %32, %29 ]
  %36 = getelementptr inbounds i8, ptr %28, i64 24
  br label %37

.thread144:                                       ; preds = %25, %29, %8, %15
  %.0112 = phi i32 [ 0, %8 ], [ 1, %15 ], [ 2, %29 ], [ 2, %25 ]
  %.0111 = phi ptr [ null, %8 ], [ %16, %15 ], [ %20, %29 ], [ %20, %25 ]
  %.0110 = phi i32 [ 0, %8 ], [ 2, %15 ], [ 16, %29 ], [ 16, %25 ]
  %.0 = phi i32 [ 1, %8 ], [ 9, %15 ], [ 9, %29 ], [ 9, %25 ]
  call void @zend_wrong_parameter_error(i32 noundef %.0, i32 noundef %.0112, ptr noundef null, i32 noundef %.0110, ptr noundef %.0111) #16
  br label %41

37:                                               ; preds = %9, %18, %34
  %.2119.ph = phi i64 [ %35, %34 ], [ 0, %18 ], [ 0, %9 ]
  %.2.ph = phi ptr [ %36, %34 ], [ null, %18 ], [ null, %9 ]
  %38 = load i8, ptr %4, align 1
  %39 = and i8 %38, 1
  %40 = icmp ne i8 %39, 0
  call void @php_clear_stat_cache(i1 noundef zeroext %40, ptr noundef %.2.ph, i64 noundef %.2119.ph)
  br label %41

41:                                               ; preds = %37, %.thread144
  ret void
}